target datalayout = "e-m:e-p270:32:32-p271:32:32-p272:64:64-i64:64-i128:128-f80:128-n8:16:32:64-S128"
target triple = "x86_64-pc-linux-gnu"

%class.dtNodePool = type <{ ptr, ptr, ptr, i32, i32, i32, [4 x i8] }>
%struct.dtNode = type { [3 x float], float, float, i32, i32 }

; Function Attrs: mustprogress nounwind uwtable
define linkonce_odr noundef i32 @_Z9dtHashRefj(i32 noundef %0) #2 comdat {
  %2 = alloca i32, align 4
  store i32 %0, ptr %2, align 4
  %3 = load i32, ptr %2, align 4
  %4 = shl i32 %3, 15
  %5 = xor i32 %4, -1
  %6 = load i32, ptr %2, align 4
  %7 = add i32 %6, %5
  store i32 %7, ptr %2, align 4
  %8 = load i32, ptr %2, align 4
  %9 = lshr i32 %8, 10
  %10 = load i32, ptr %2, align 4
  %11 = xor i32 %10, %9
  store i32 %11, ptr %2, align 4
  %12 = load i32, ptr %2, align 4
  %13 = shl i32 %12, 3
  %14 = load i32, ptr %2, align 4
  %15 = add i32 %14, %13
  store i32 %15, ptr %2, align 4
  %16 = load i32, ptr %2, align 4
  %17 = lshr i32 %16, 6
  %18 = load i32, ptr %2, align 4
  %19 = xor i32 %18, %17
  store i32 %19, ptr %2, align 4
  %20 = load i32, ptr %2, align 4
  %21 = shl i32 %20, 11
  %22 = xor i32 %21, -1
  %23 = load i32, ptr %2, align 4
  %24 = add i32 %23, %22
  store i32 %24, ptr %2, align 4
  %25 = load i32, ptr %2, align 4
  %26 = lshr i32 %25, 16
  %27 = load i32, ptr %2, align 4
  %28 = xor i32 %27, %26
  store i32 %28, ptr %2, align 4
  %29 = load i32, ptr %2, align 4
  ret i32 %29
}

; Function Attrs: mustprogress uwtable
define noundef ptr @_ZN10dtNodePool7getNodeEjh(ptr noundef nonnull align 8 dereferenceable(36) %0, i32 noundef %1, i8 noundef zeroext %2) #0 align 2 {
  %4 = alloca ptr, align 8
  %5 = alloca ptr, align 8
  %6 = alloca i32, align 4
  %7 = alloca i8, align 1
  %8 = alloca i32, align 4
  %9 = alloca i16, align 2
  %10 = alloca ptr, align 8
  store ptr %0, ptr %5, align 8
  store i32 %1, ptr %6, align 4
  store i8 %2, ptr %7, align 1
  %11 = load ptr, ptr %5, align 8
  %12 = load i32, ptr %6, align 4
  %13 = call noundef i32 @_Z9dtHashRefj(i32 noundef %12)
  %14 = getelementptr inbounds %class.dtNodePool, ptr %11, i32 0, i32 4
  %15 = load i32, ptr %14, align 4
  %16 = sub nsw i32 %15, 1
  %17 = and i32 %13, %16
  store i32 %17, ptr %8, align 4
  %18 = getelementptr inbounds %class.dtNodePool, ptr %11, i32 0, i32 1
  %19 = load ptr, ptr %18, align 8
  %20 = load i32, ptr %8, align 4
  %21 = zext i32 %20 to i64
  %22 = getelementptr inbounds i16, ptr %19, i64 %21
  %23 = load i16, ptr %22, align 2
  store i16 %23, ptr %9, align 2
  store ptr null, ptr %10, align 8
  br label %24

24:                                               ; preds = %57, %3
  %25 = load i16, ptr %9, align 2
  %26 = zext i16 %25 to i32
  %27 = icmp ne i32 %26, 65535
  br i1 %27, label %28, label %64

28:                                               ; preds = %24
  %29 = getelementptr inbounds %class.dtNodePool, ptr %11, i32 0, i32 0
  %30 = load ptr, ptr %29, align 8
  %31 = load i16, ptr %9, align 2
  %32 = zext i16 %31 to i64
  %33 = getelementptr inbounds %struct.dtNode, ptr %30, i64 %32
  %34 = getelementptr inbounds %struct.dtNode, ptr %33, i32 0, i32 4
  %35 = load i32, ptr %34, align 4
  %36 = load i32, ptr %6, align 4
  %37 = icmp eq i32 %35, %36
  br i1 %37, label %38, label %57

38:                                               ; preds = %28
  %39 = getelementptr inbounds %class.dtNodePool, ptr %11, i32 0, i32 0
  %40 = load ptr, ptr %39, align 8
  %41 = load i16, ptr %9, align 2
  %42 = zext i16 %41 to i64
  %43 = getelementptr inbounds %struct.dtNode, ptr %40, i64 %42
  %44 = getelementptr inbounds %struct.dtNode, ptr %43, i32 0, i32 3
  %45 = load i32, ptr %44, align 4
  %46 = lshr i32 %45, 24
  %47 = and i32 %46, 3
  %48 = load i8, ptr %7, align 1
  %49 = zext i8 %48 to i32
  %50 = icmp eq i32 %47, %49
  br i1 %50, label %51, label %57

51:                                               ; preds = %38
  %52 = getelementptr inbounds %class.dtNodePool, ptr %11, i32 0, i32 0
  %53 = load ptr, ptr %52, align 8
  %54 = load i16, ptr %9, align 2
  %55 = zext i16 %54 to i64
  %56 = getelementptr inbounds %struct.dtNode, ptr %53, i64 %55
  store ptr %56, ptr %4, align 8
  br label %127

57:                                               ; preds = %38, %28
  %58 = getelementptr inbounds %class.dtNodePool, ptr %11, i32 0, i32 2
  %59 = load ptr, ptr %58, align 8
  %60 = load i16, ptr %9, align 2
  %61 = zext i16 %60 to i64
  %62 = getelementptr inbounds i16, ptr %59, i64 %61
  %63 = load i16, ptr %62, align 2
  store i16 %63, ptr %9, align 2
  br label %24, !llvm.loop !7

64:                                               ; preds = %24
  %65 = getelementptr inbounds %class.dtNodePool, ptr %11, i32 0, i32 5
  %66 = load i32, ptr %65, align 8
  %67 = getelementptr inbounds %class.dtNodePool, ptr %11, i32 0, i32 3
  %68 = load i32, ptr %67, align 8
  %69 = icmp sge i32 %66, %68
  br i1 %69, label %70, label %71

70:                                               ; preds = %64
  store ptr null, ptr %4, align 8
  br label %127

71:                                               ; preds = %64
  %72 = getelementptr inbounds %class.dtNodePool, ptr %11, i32 0, i32 5
  %73 = load i32, ptr %72, align 8
  %74 = trunc i32 %73 to i16
  store i16 %74, ptr %9, align 2
  %75 = getelementptr inbounds %class.dtNodePool, ptr %11, i32 0, i32 5
  %76 = load i32, ptr %75, align 8
  %77 = add nsw i32 %76, 1
  store i32 %77, ptr %75, align 8
  %78 = getelementptr inbounds %class.dtNodePool, ptr %11, i32 0, i32 0
  %79 = load ptr, ptr %78, align 8
  %80 = load i16, ptr %9, align 2
  %81 = zext i16 %80 to i64
  %82 = getelementptr inbounds %struct.dtNode, ptr %79, i64 %81
  store ptr %82, ptr %10, align 8
  %83 = load ptr, ptr %10, align 8
  %84 = getelementptr inbounds %struct.dtNode, ptr %83, i32 0, i32 3
  %85 = load i32, ptr %84, align 4
  %86 = and i32 %85, -16777216
  %87 = or i32 %86, 0
  store i32 %87, ptr %84, align 4
  %88 = load ptr, ptr %10, align 8
  %89 = getelementptr inbounds %struct.dtNode, ptr %88, i32 0, i32 1
  store float 0.000000e+00, ptr %89, align 4
  %90 = load ptr, ptr %10, align 8
  %91 = getelementptr inbounds %struct.dtNode, ptr %90, i32 0, i32 2
  store float 0.000000e+00, ptr %91, align 4
  %92 = load i32, ptr %6, align 4
  %93 = load ptr, ptr %10, align 8
  %94 = getelementptr inbounds %struct.dtNode, ptr %93, i32 0, i32 4
  store i32 %92, ptr %94, align 4
  %95 = load i8, ptr %7, align 1
  %96 = zext i8 %95 to i32
  %97 = load ptr, ptr %10, align 8
  %98 = getelementptr inbounds %struct.dtNode, ptr %97, i32 0, i32 3
  %99 = load i32, ptr %98, align 4
  %100 = and i32 %96, 3
  %101 = shl i32 %100, 24
  %102 = and i32 %99, -50331649
  %103 = or i32 %102, %101
  store i32 %103, ptr %98, align 4
  %104 = load ptr, ptr %10, align 8
  %105 = getelementptr inbounds %struct.dtNode, ptr %104, i32 0, i32 3
  %106 = load i32, ptr %105, align 4
  %107 = and i32 %106, -469762049
  %108 = or i32 %107, 0
  store i32 %108, ptr %105, align 4
  %109 = getelementptr inbounds %class.dtNodePool, ptr %11, i32 0, i32 1
  %110 = load ptr, ptr %109, align 8
  %111 = load i32, ptr %8, align 4
  %112 = zext i32 %111 to i64
  %113 = getelementptr inbounds i16, ptr %110, i64 %112
  %114 = load i16, ptr %113, align 2
  %115 = getelementptr inbounds %class.dtNodePool, ptr %11, i32 0, i32 2
  %116 = load ptr, ptr %115, align 8
  %117 = load i16, ptr %9, align 2
  %118 = zext i16 %117 to i64
  %119 = getelementptr inbounds i16, ptr %116, i64 %118
  store i16 %114, ptr %119, align 2
  %120 = load i16, ptr %9, align 2
  %121 = getelementptr inbounds %class.dtNodePool, ptr %11, i32 0, i32 1
  %122 = load ptr, ptr %121, align 8
  %123 = load i32, ptr %8, align 4
  %124 = zext i32 %123 to i64
  %125 = getelementptr inbounds i16, ptr %122, i64 %124
  store i16 %120, ptr %125, align 2
  %126 = load ptr, ptr %10, align 8
  store ptr %126, ptr %4, align 8
  br label %127

127:                                              ; preds = %71, %70, %51
  %128 = load ptr, ptr %4, align 8
  ret ptr %128
}