; Function Attrs: mustprogress nofree norecurse nosync nounwind memory(readwrite, inaccessiblemem: none) uwtable
define noundef ptr @_ZN10dtNodePool7getNodeEjh(ptr noundef nonnull align 8 captures(none) dereferenceable(36) %0, i32 noundef %1, i8 noundef zeroext %2) local_unnamed_addr #9 align 2 {
  %4 = shl i32 %1, 15
  %5 = xor i32 %4, -1
  %6 = add i32 %1, %5
  %7 = lshr i32 %6, 10
  %8 = xor i32 %7, %6
  %9 = mul i32 %8, 9
  %10 = lshr i32 %9, 6
  %11 = xor i32 %10, %9
  %12 = shl i32 %11, 11
  %13 = xor i32 %12, -1
  %14 = add i32 %11, %13
  %15 = lshr i32 %14, 16
  %16 = xor i32 %15, %14
  %17 = getelementptr inbounds nuw i8, ptr %0, i64 28
  %18 = load i32, ptr %17, align 4
  %19 = add nsw i32 %18, -1
  %20 = and i32 %19, %16
  %21 = getelementptr inbounds nuw i8, ptr %0, i64 8
  %22 = load ptr, ptr %21, align 8
  %23 = zext i32 %20 to i64
  %24 = getelementptr inbounds nuw i16, ptr %22, i64 %23
  %.027 = load i16, ptr %24, align 2
  %.not28 = icmp eq i16 %.027, -1
  br i1 %.not28, label %._crit_edge, label %.lr.ph

.lr.ph:                                           ; preds = %3
  %25 = load ptr, ptr %0, align 8
  %26 = zext i8 %2 to i32
  %27 = getelementptr inbounds nuw i8, ptr %0, i64 16
  %28 = load ptr, ptr %27, align 8
  br label %29

29:                                               ; preds = %.lr.ph, %41
  %.029 = phi i16 [ %.027, %.lr.ph ], [ %.0, %41 ]
  %30 = zext i16 %.029 to i64
  %31 = getelementptr inbounds nuw %struct.dtNode, ptr %25, i64 %30
  %32 = getelementptr inbounds nuw i8, ptr %31, i64 24
  %33 = load i32, ptr %32, align 4
  %34 = icmp eq i32 %33, %1
  br i1 %34, label %35, label %41

35:                                               ; preds = %29
  %36 = getelementptr inbounds nuw i8, ptr %31, i64 20
  %37 = load i32, ptr %36, align 4
  %38 = lshr i32 %37, 24
  %39 = and i32 %38, 3
  %40 = icmp eq i32 %39, %26
  br i1 %40, label %.loopexit, label %41

41:                                               ; preds = %35, %29
  %42 = getelementptr inbounds nuw i16, ptr %28, i64 %30
  %.0 = load i16, ptr %42, align 2
  %.not = icmp eq i16 %.0, -1
  br i1 %.not, label %._crit_edge, label %29, !llvm.loop !7

._crit_edge:                                      ; preds = %41, %3
  %43 = getelementptr inbounds nuw i8, ptr %0, i64 32
  %44 = load i32, ptr %43, align 8
  %45 = getelementptr inbounds nuw i8, ptr %0, i64 24
  %46 = load i32, ptr %45, align 8
  %.not26 = icmp slt i32 %44, %46
  br i1 %.not26, label %47, label %.loopexit

47:                                               ; preds = %._crit_edge
  %48 = trunc i32 %44 to i16
  %49 = add nsw i32 %44, 1
  store i32 %49, ptr %43, align 8
  %50 = load ptr, ptr %0, align 8
  %.mask = and i32 %44, 65535
  %51 = zext nneg i32 %.mask to i64
  %52 = getelementptr inbounds nuw %struct.dtNode, ptr %50, i64 %51
  %53 = getelementptr inbounds nuw i8, ptr %52, i64 20
  %54 = load i32, ptr %53, align 4
  %55 = getelementptr inbounds nuw i8, ptr %52, i64 12
  store float 0.000000e+00, ptr %55, align 4
  %56 = getelementptr inbounds nuw i8, ptr %52, i64 16
  store float 0.000000e+00, ptr %56, align 4
  %57 = getelementptr inbounds nuw i8, ptr %52, i64 24
  store i32 %1, ptr %57, align 4
  %58 = and i8 %2, 3
  %59 = zext nneg i8 %58 to i32
  %60 = shl nuw nsw i32 %59, 24
  %61 = and i32 %54, -536870912
  %62 = or disjoint i32 %61, %60
  store i32 %62, ptr %53, align 4
  %63 = load ptr, ptr %21, align 8
  %64 = getelementptr inbounds nuw i16, ptr %63, i64 %23
  %65 = load i16, ptr %64, align 2
  %66 = getelementptr inbounds nuw i8, ptr %0, i64 16
  %67 = load ptr, ptr %66, align 8
  %68 = getelementptr inbounds nuw i16, ptr %67, i64 %51
  store i16 %65, ptr %68, align 2
  %69 = load ptr, ptr %21, align 8
  %70 = getelementptr inbounds nuw i16, ptr %69, i64 %23
  store i16 %48, ptr %70, align 2
  br label %.loopexit

.loopexit:                                        ; preds = %35, %._crit_edge, %47
  %.024 = phi ptr [ %52, %47 ], [ null, %._crit_edge ], [ %31, %35 ]
  ret ptr %.024
}